target datalayout = "e-m:e-p270:32:32-p271:32:32-p272:64:64-i64:64-i128:128-f80:128-n8:16:32:64-S128"
target triple = "x86_64-pc-linux-gnu"

%"class.icu_77::RBBITableBuilder" = type <{ ptr, ptr, ptr, ptr, ptr, ptr, i32, [4 x i8] }>
%"class.icu_77::UObject" = type { ptr }
%"class.icu_77::UnicodeString" = type { %"class.icu_77::Replaceable", %"union.icu_77::UnicodeString::StackBufferOrFields" }
%"class.icu_77::Replaceable" = type { %"class.icu_77::UObject" }
%"union.icu_77::UnicodeString::StackBufferOrFields" = type { %struct.anon.0, [32 x i8] }
%struct.anon.0 = type { i16, i32, i32, ptr }
%"class.icu_77::RBBINode" = type { i32, ptr, ptr, ptr, ptr, i32, %"class.icu_77::UnicodeString", i32, i32, i8, i32, i8, i8, i8, ptr, ptr, ptr }

; Function Attrs: inlinehint mustprogress nounwind uwtable
define internal noundef signext i8 @_ZL9U_FAILURE10UErrorCode(i32 noundef %0) #1 {
  %2 = alloca i32, align 4
  store i32 %0, ptr %2, align 4, !tbaa !24
  %3 = load i32, ptr %2, align 4, !tbaa !24
  %4 = icmp sgt i32 %3, 0
  %5 = zext i1 %4 to i8
  ret i8 %5
}

; Function Attrs: mustprogress uwtable
define void @_ZN6icu_7716RBBITableBuilder16addRuleRootNodesEPNS_7UVectorEPNS_8RBBINodeE(ptr noundef nonnull align 8 dereferenceable(52) %0, ptr noundef %1, ptr noundef %2) #0 align 2 {
  %4 = alloca ptr, align 8
  %5 = alloca ptr, align 8
  %6 = alloca ptr, align 8
  store ptr %0, ptr %4, align 8, !tbaa !3
  store ptr %1, ptr %5, align 8, !tbaa !31
  store ptr %2, ptr %6, align 8, !tbaa !37
  %7 = load ptr, ptr %4, align 8
  %8 = load ptr, ptr %6, align 8, !tbaa !37
  %9 = icmp eq ptr %8, null
  br i1 %9, label %16, label %10

10:                                               ; preds = %3
  %11 = getelementptr inbounds nuw %"class.icu_77::RBBITableBuilder", ptr %7, i32 0, i32 2
  %12 = load ptr, ptr %11, align 8, !tbaa !19
  %13 = load i32, ptr %12, align 4, !tbaa !24
  %14 = call noundef signext i8 @_ZL9U_FAILURE10UErrorCode(i32 noundef %13)
  %15 = icmp ne i8 %14, 0
  br i1 %15, label %16, label %17

16:                                               ; preds = %10, %3
  br label %36

17:                                               ; preds = %10
  %18 = load ptr, ptr %6, align 8, !tbaa !37
  %19 = getelementptr inbounds nuw %"class.icu_77::RBBINode", ptr %18, i32 0, i32 12
  %20 = load i8, ptr %19, align 1, !tbaa !109
  %21 = icmp ne i8 %20, 0
  br i1 %21, label %22, label %27

22:                                               ; preds = %17
  %23 = load ptr, ptr %5, align 8, !tbaa !31
  %24 = load ptr, ptr %6, align 8, !tbaa !37
  %25 = getelementptr inbounds nuw %"class.icu_77::RBBITableBuilder", ptr %7, i32 0, i32 2
  %26 = load ptr, ptr %25, align 8, !tbaa !19
  call void @_ZN6icu_777UVector10addElementEPvR10UErrorCode(ptr noundef nonnull align 8 dereferenceable(40) %23, ptr noundef %24, ptr noundef nonnull align 4 dereferenceable(4) %26)
  br label %36

27:                                               ; preds = %17
  %28 = load ptr, ptr %5, align 8, !tbaa !31
  %29 = load ptr, ptr %6, align 8, !tbaa !37
  %30 = getelementptr inbounds nuw %"class.icu_77::RBBINode", ptr %29, i32 0, i32 2
  %31 = load ptr, ptr %30, align 8, !tbaa !48
  call void @_ZN6icu_7716RBBITableBuilder16addRuleRootNodesEPNS_7UVectorEPNS_8RBBINodeE(ptr noundef nonnull align 8 dereferenceable(52) %7, ptr noundef %28, ptr noundef %31)
  %32 = load ptr, ptr %5, align 8, !tbaa !31
  %33 = load ptr, ptr %6, align 8, !tbaa !37
  %34 = getelementptr inbounds nuw %"class.icu_77::RBBINode", ptr %33, i32 0, i32 3
  %35 = load ptr, ptr %34, align 8, !tbaa !53
  call void @_ZN6icu_7716RBBITableBuilder16addRuleRootNodesEPNS_7UVectorEPNS_8RBBINodeE(ptr noundef nonnull align 8 dereferenceable(52) %7, ptr noundef %32, ptr noundef %35)
  br label %36

36:                                               ; preds = %27, %22, %16
  ret void
}