; Function Attrs: mustprogress uwtable
define void @_ZN6icu_7716RBBITableBuilder16addRuleRootNodesEPNS_7UVectorEPNS_8RBBINodeE(ptr noundef nonnull readonly align 8 captures(none) dereferenceable(52) %0, ptr noundef %1, ptr noundef %2) local_unnamed_addr #0 align 2 {
  %4 = icmp eq ptr %2, null
  br i1 %4, label %.loopexit, label %.lr.ph

.lr.ph:                                           ; preds = %3
  %5 = getelementptr inbounds nuw i8, ptr %0, i64 16
  br label %6

6:                                                ; preds = %.lr.ph, %tailrecurse
  %.tr1113 = phi ptr [ %2, %.lr.ph ], [ %17, %tailrecurse ]
  %7 = load ptr, ptr %5, align 8, !tbaa !15
  %8 = load i32, ptr %7, align 4, !tbaa !17
  %9 = icmp slt i32 %8, 1
  br i1 %9, label %10, label %.loopexit

10:                                               ; preds = %6
  %11 = getelementptr inbounds nuw i8, ptr %.tr1113, i64 129
  %12 = load i8, ptr %11, align 1, !tbaa !104
  %.not9 = icmp eq i8 %12, 0
  br i1 %.not9, label %tailrecurse, label %13

13:                                               ; preds = %10
  tail call void @_ZN6icu_777UVector10addElementEPvR10UErrorCode(ptr noundef nonnull align 8 dereferenceable(40) %1, ptr noundef nonnull %.tr1113, ptr noundef nonnull align 4 dereferenceable(4) %7)
  br label %.loopexit

tailrecurse:                                      ; preds = %10
  %14 = getelementptr inbounds nuw i8, ptr %.tr1113, i64 16
  %15 = load ptr, ptr %14, align 8, !tbaa !43
  tail call void @_ZN6icu_7716RBBITableBuilder16addRuleRootNodesEPNS_7UVectorEPNS_8RBBINodeE(ptr noundef nonnull align 8 dereferenceable(52) %0, ptr noundef %1, ptr noundef %15)
  %16 = getelementptr inbounds nuw i8, ptr %.tr1113, i64 24
  %17 = load ptr, ptr %16, align 8, !tbaa !48
  %18 = icmp eq ptr %17, null
  br i1 %18, label %.loopexit, label %6

.loopexit:                                        ; preds = %6, %tailrecurse, %3, %13
  ret void
}